; Function Attrs: mustprogress uwtable
define hidden void @_ZN2qe9uflia_mbi11order_avarsER10ref_vectorI3app11ast_managerE(ptr nonnull readnone align 8 captures(none) %0, ptr noundef nonnull readonly align 8 captures(none) dereferenceable(16) %1) local_unnamed_addr #3 align 2 personality ptr @__gxx_personality_v0 {
  %3 = alloca %"class.std::function.108", align 8
  %4 = alloca %"class.std::function.108", align 8
  call void @llvm.lifetime.start.p0(i64 32, ptr nonnull %3) #25
  %5 = getelementptr inbounds nuw i8, ptr %3, i64 16
  %6 = getelementptr inbounds nuw i8, ptr %3, i64 24
  call void @llvm.memset.p0.i64(ptr noundef nonnull align 8 dereferenceable(32) %3, i8 0, i64 16, i1 false)
  store ptr @"_ZNSt17_Function_handlerIFbP3appS1_EZN2qe9uflia_mbi11order_avarsER10ref_vectorIS0_11ast_managerEE3$_0E9_M_invokeERKSt9_Any_dataOS1_SE_", ptr %6, align 8, !tbaa !246
  store ptr @"_ZNSt17_Function_handlerIFbP3appS1_EZN2qe9uflia_mbi11order_avarsER10ref_vectorIS0_11ast_managerEE3$_0E10_M_managerERSt9_Any_dataRKSB_St18_Manager_operation", ptr %5, align 8, !tbaa !84
  %7 = getelementptr inbounds nuw i8, ptr %1, i64 8
  %8 = load ptr, ptr %7, align 8, !tbaa !229
  %9 = icmp eq ptr %8, null
  br i1 %9, label %14, label %10

10:                                               ; preds = %2
  %11 = getelementptr inbounds i8, ptr %8, i64 -4
  %12 = load i32, ptr %11, align 4, !tbaa !69
  %13 = zext i32 %12 to i64
  br label %14

14:                                               ; preds = %2, %10
  %.0.i.i = phi i64 [ %13, %10 ], [ 0, %2 ]
  %15 = getelementptr inbounds nuw i8, ptr %4, i64 16
  %16 = getelementptr inbounds nuw i8, ptr %4, i64 24
  call void @llvm.memset.p0.i64(ptr noundef nonnull align 8 dereferenceable(32) %4, i8 0, i64 16, i1 false)
  store ptr @"_ZNSt17_Function_handlerIFbP3appS1_EZN2qe9uflia_mbi11order_avarsER10ref_vectorIS0_11ast_managerEE3$_0E9_M_invokeERKSt9_Any_dataOS1_SE_", ptr %16, align 8, !tbaa !246
  store ptr @"_ZNSt17_Function_handlerIFbP3appS1_EZN2qe9uflia_mbi11order_avarsER10ref_vectorIS0_11ast_managerEE3$_0E10_M_managerERSt9_Any_dataRKSB_St18_Manager_operation", ptr %15, align 8, !tbaa !84
  %17 = getelementptr inbounds nuw ptr, ptr %8, i64 %.0.i.i
  invoke void @_ZSt4sortIPP3appSt8functionIFbS1_S1_EEEvT_S6_T0_(ptr noundef %8, ptr noundef %17, ptr noundef nonnull %4)
          to label %18 unwind label %30

18:                                               ; preds = %14
  %19 = load ptr, ptr %15, align 8, !tbaa !84
  %.not.i = icmp eq ptr %19, null
  br i1 %.not.i, label %_ZNSt14_Function_baseD2Ev.exit.thread, label %20

20:                                               ; preds = %18
  %21 = invoke noundef zeroext i1 %19(ptr noundef nonnull align 8 dereferenceable(32) %4, ptr noundef nonnull align 8 dereferenceable(32) %4, i32 noundef 3)
          to label %_ZNSt14_Function_baseD2Ev.exit unwind label %22

22:                                               ; preds = %20
  %23 = landingpad { ptr, i32 }
          catch ptr null
  %24 = extractvalue { ptr, i32 } %23, 0
  call void @__clang_call_terminate(ptr %24) #26
  unreachable

_ZNSt14_Function_baseD2Ev.exit:                   ; preds = %20
  %.pre12 = load ptr, ptr %5, align 8, !tbaa !84
  %.not.i6 = icmp eq ptr %.pre12, null
  br i1 %.not.i6, label %_ZNSt14_Function_baseD2Ev.exit7, label %_ZNSt14_Function_baseD2Ev.exit.thread

_ZNSt14_Function_baseD2Ev.exit.thread:            ; preds = %18, %_ZNSt14_Function_baseD2Ev.exit
  %25 = phi ptr [ %.pre12, %_ZNSt14_Function_baseD2Ev.exit ], [ @"_ZNSt17_Function_handlerIFbP3appS1_EZN2qe9uflia_mbi11order_avarsER10ref_vectorIS0_11ast_managerEE3$_0E10_M_managerERSt9_Any_dataRKSB_St18_Manager_operation", %18 ]
  %26 = invoke noundef zeroext i1 %25(ptr noundef nonnull align 8 dereferenceable(32) %3, ptr noundef nonnull align 8 dereferenceable(32) %3, i32 noundef 3)
          to label %_ZNSt14_Function_baseD2Ev.exit7 unwind label %27

27:                                               ; preds = %_ZNSt14_Function_baseD2Ev.exit.thread
  %28 = landingpad { ptr, i32 }
          catch ptr null
  %29 = extractvalue { ptr, i32 } %28, 0
  call void @__clang_call_terminate(ptr %29) #26
  unreachable

_ZNSt14_Function_baseD2Ev.exit7:                  ; preds = %_ZNSt14_Function_baseD2Ev.exit, %_ZNSt14_Function_baseD2Ev.exit.thread
  call void @llvm.lifetime.end.p0(i64 32, ptr nonnull %3) #25
  ret void

30:                                               ; preds = %14
  %31 = landingpad { ptr, i32 }
          cleanup
  %32 = load ptr, ptr %15, align 8, !tbaa !84
  %.not.i8 = icmp eq ptr %32, null
  br i1 %.not.i8, label %.body.thread, label %33

33:                                               ; preds = %30
  %34 = invoke noundef zeroext i1 %32(ptr noundef nonnull align 8 dereferenceable(32) %4, ptr noundef nonnull align 8 dereferenceable(32) %4, i32 noundef 3)
          to label %.body unwind label %35

35:                                               ; preds = %33
  %36 = landingpad { ptr, i32 }
          catch ptr null
  %37 = extractvalue { ptr, i32 } %36, 0
  call void @__clang_call_terminate(ptr %37) #26
  unreachable

.body:                                            ; preds = %33
  %.pre = load ptr, ptr %5, align 8, !tbaa !84
  %.not.i10 = icmp eq ptr %.pre, null
  br i1 %.not.i10, label %_ZNSt14_Function_baseD2Ev.exit11, label %.body.thread

.body.thread:                                     ; preds = %30, %.body
  %38 = phi ptr [ %.pre, %.body ], [ @"_ZNSt17_Function_handlerIFbP3appS1_EZN2qe9uflia_mbi11order_avarsER10ref_vectorIS0_11ast_managerEE3$_0E10_M_managerERSt9_Any_dataRKSB_St18_Manager_operation", %30 ]
  %39 = invoke noundef zeroext i1 %38(ptr noundef nonnull align 8 dereferenceable(32) %3, ptr noundef nonnull align 8 dereferenceable(32) %3, i32 noundef 3)
          to label %_ZNSt14_Function_baseD2Ev.exit11 unwind label %40

40:                                               ; preds = %.body.thread
  %41 = landingpad { ptr, i32 }
          catch ptr null
  %42 = extractvalue { ptr, i32 } %41, 0
  call void @__clang_call_terminate(ptr %42) #26
  unreachable

_ZNSt14_Function_baseD2Ev.exit11:                 ; preds = %.body, %.body.thread
  call void @llvm.lifetime.end.p0(i64 32, ptr nonnull %3) #25
  resume { ptr, i32 } %31
}